target datalayout = "e-m:e-p270:32:32-p271:32:32-p272:64:64-i64:64-i128:128-f80:128-n8:16:32:64-S128"
target triple = "x86_64-pc-linux-gnu"

%struct.Min_Cube_t_ = type { ptr, i32, [1 x i32] }
%struct.Vec_Int_t_ = type { i32, i32, ptr }

; Function Attrs: inlinehint nounwind uwtable
define internal void @Vec_IntGrow(ptr noundef %0, i32 noundef %1) #3 {
  %3 = alloca ptr, align 8
  %4 = alloca i32, align 4
  store ptr %0, ptr %3, align 8, !tbaa !12
  store i32 %1, ptr %4, align 4, !tbaa !14
  %5 = load ptr, ptr %3, align 8, !tbaa !12
  %6 = getelementptr inbounds nuw %struct.Vec_Int_t_, ptr %5, i32 0, i32 0
  %7 = load i32, ptr %6, align 8, !tbaa !38
  %8 = load i32, ptr %4, align 4, !tbaa !14
  %9 = icmp sge i32 %7, %8
  br i1 %9, label %10, label %11

10:                                               ; preds = %2
  br label %36

11:                                               ; preds = %2
  %12 = load ptr, ptr %3, align 8, !tbaa !12
  %13 = getelementptr inbounds nuw %struct.Vec_Int_t_, ptr %12, i32 0, i32 2
  %14 = load ptr, ptr %13, align 8, !tbaa !37
  %15 = icmp ne ptr %14, null
  br i1 %15, label %16, label %24

16:                                               ; preds = %11
  %17 = load ptr, ptr %3, align 8, !tbaa !12
  %18 = getelementptr inbounds nuw %struct.Vec_Int_t_, ptr %17, i32 0, i32 2
  %19 = load ptr, ptr %18, align 8, !tbaa !37
  %20 = load i32, ptr %4, align 4, !tbaa !14
  %21 = sext i32 %20 to i64
  %22 = mul i64 4, %21
  %23 = call ptr @realloc(ptr noundef %19, i64 noundef %22) #9
  br label %29

24:                                               ; preds = %11
  %25 = load i32, ptr %4, align 4, !tbaa !14
  %26 = sext i32 %25 to i64
  %27 = mul i64 4, %26
  %28 = call noalias ptr @malloc(i64 noundef %27) #8
  br label %29

29:                                               ; preds = %24, %16
  %30 = phi ptr [ %23, %16 ], [ %28, %24 ]
  %31 = load ptr, ptr %3, align 8, !tbaa !12
  %32 = getelementptr inbounds nuw %struct.Vec_Int_t_, ptr %31, i32 0, i32 2
  store ptr %30, ptr %32, align 8, !tbaa !37
  %33 = load i32, ptr %4, align 4, !tbaa !14
  %34 = load ptr, ptr %3, align 8, !tbaa !12
  %35 = getelementptr inbounds nuw %struct.Vec_Int_t_, ptr %34, i32 0, i32 0
  store i32 %33, ptr %35, align 8, !tbaa !38
  br label %36

36:                                               ; preds = %29, %10
  ret void
}

; Function Attrs: inlinehint nounwind uwtable
define internal void @Vec_IntPush(ptr noundef %0, i32 noundef %1) #3 {
  %3 = alloca ptr, align 8
  %4 = alloca i32, align 4
  store ptr %0, ptr %3, align 8, !tbaa !12
  store i32 %1, ptr %4, align 4, !tbaa !14
  %5 = load ptr, ptr %3, align 8, !tbaa !12
  %6 = getelementptr inbounds nuw %struct.Vec_Int_t_, ptr %5, i32 0, i32 1
  %7 = load i32, ptr %6, align 4, !tbaa !21
  %8 = load ptr, ptr %3, align 8, !tbaa !12
  %9 = getelementptr inbounds nuw %struct.Vec_Int_t_, ptr %8, i32 0, i32 0
  %10 = load i32, ptr %9, align 8, !tbaa !38
  %11 = icmp eq i32 %7, %10
  br i1 %11, label %12, label %26

12:                                               ; preds = %2
  %13 = load ptr, ptr %3, align 8, !tbaa !12
  %14 = getelementptr inbounds nuw %struct.Vec_Int_t_, ptr %13, i32 0, i32 0
  %15 = load i32, ptr %14, align 8, !tbaa !38
  %16 = icmp slt i32 %15, 16
  br i1 %16, label %17, label %19

17:                                               ; preds = %12
  %18 = load ptr, ptr %3, align 8, !tbaa !12
  call void @Vec_IntGrow(ptr noundef %18, i32 noundef 16)
  br label %25

19:                                               ; preds = %12
  %20 = load ptr, ptr %3, align 8, !tbaa !12
  %21 = load ptr, ptr %3, align 8, !tbaa !12
  %22 = getelementptr inbounds nuw %struct.Vec_Int_t_, ptr %21, i32 0, i32 0
  %23 = load i32, ptr %22, align 8, !tbaa !38
  %24 = mul nsw i32 2, %23
  call void @Vec_IntGrow(ptr noundef %20, i32 noundef %24)
  br label %25

25:                                               ; preds = %19, %17
  br label %26

26:                                               ; preds = %25, %2
  %27 = load i32, ptr %4, align 4, !tbaa !14
  %28 = load ptr, ptr %3, align 8, !tbaa !12
  %29 = getelementptr inbounds nuw %struct.Vec_Int_t_, ptr %28, i32 0, i32 2
  %30 = load ptr, ptr %29, align 8, !tbaa !37
  %31 = load ptr, ptr %3, align 8, !tbaa !12
  %32 = getelementptr inbounds nuw %struct.Vec_Int_t_, ptr %31, i32 0, i32 1
  %33 = load i32, ptr %32, align 4, !tbaa !21
  %34 = add nsw i32 %33, 1
  store i32 %34, ptr %32, align 4, !tbaa !21
  %35 = sext i32 %33 to i64
  %36 = getelementptr inbounds i32, ptr %30, i64 %35
  store i32 %27, ptr %36, align 4, !tbaa !14
  ret void
}

; Function Attrs: inlinehint nounwind uwtable
define internal void @Vec_IntClear(ptr noundef %0) #3 {
  %2 = alloca ptr, align 8
  store ptr %0, ptr %2, align 8, !tbaa !12
  %3 = load ptr, ptr %2, align 8, !tbaa !12
  %4 = getelementptr inbounds nuw %struct.Vec_Int_t_, ptr %3, i32 0, i32 1
  store i32 0, ptr %4, align 4, !tbaa !21
  ret void
}

; Function Attrs: inlinehint nounwind uwtable
define internal void @Min_CubeGetLits(ptr noundef %0, ptr noundef %1) #3 {
  %3 = alloca ptr, align 8
  %4 = alloca ptr, align 8
  %5 = alloca i32, align 4
  %6 = alloca i32, align 4
  %7 = alloca i32, align 4
  store ptr %0, ptr %3, align 8, !tbaa !10
  store ptr %1, ptr %4, align 8, !tbaa !12
  call void @llvm.lifetime.start.p0(i64 4, ptr %5) #7
  call void @llvm.lifetime.start.p0(i64 4, ptr %6) #7
  call void @llvm.lifetime.start.p0(i64 4, ptr %7) #7
  %8 = load ptr, ptr %4, align 8, !tbaa !12
  call void @Vec_IntClear(ptr noundef %8)
  store i32 0, ptr %7, align 4, !tbaa !14
  br label %9

9:                                                ; preds = %53, %2
  %10 = load i32, ptr %7, align 4, !tbaa !14
  %11 = load ptr, ptr %3, align 8, !tbaa !10
  %12 = getelementptr inbounds nuw %struct.Min_Cube_t_, ptr %11, i32 0, i32 1
  %13 = load i32, ptr %12, align 8
  %14 = lshr i32 %13, 10
  %15 = and i32 %14, 4095
  %16 = icmp slt i32 %10, %15
  br i1 %16, label %17, label %56

17:                                               ; preds = %9
  %18 = load ptr, ptr %3, align 8, !tbaa !10
  %19 = getelementptr inbounds nuw %struct.Min_Cube_t_, ptr %18, i32 0, i32 2
  %20 = load i32, ptr %7, align 4, !tbaa !14
  %21 = sext i32 %20 to i64
  %22 = getelementptr inbounds [1 x i32], ptr %19, i64 0, i64 %21
  %23 = load i32, ptr %22, align 4, !tbaa !14
  %24 = load ptr, ptr %3, align 8, !tbaa !10
  %25 = getelementptr inbounds nuw %struct.Min_Cube_t_, ptr %24, i32 0, i32 2
  %26 = load i32, ptr %7, align 4, !tbaa !14
  %27 = sext i32 %26 to i64
  %28 = getelementptr inbounds [1 x i32], ptr %25, i64 0, i64 %27
  %29 = load i32, ptr %28, align 4, !tbaa !14
  %30 = lshr i32 %29, 1
  %31 = xor i32 %23, %30
  store i32 %31, ptr %5, align 4, !tbaa !14
  store i32 0, ptr %6, align 4, !tbaa !14
  br label %32

32:                                               ; preds = %49, %17
  %33 = load i32, ptr %6, align 4, !tbaa !14
  %34 = icmp slt i32 %33, 32
  br i1 %34, label %35, label %52

35:                                               ; preds = %32
  %36 = load i32, ptr %5, align 4, !tbaa !14
  %37 = load i32, ptr %6, align 4, !tbaa !14
  %38 = shl i32 1, %37
  %39 = and i32 %36, %38
  %40 = icmp ne i32 %39, 0
  br i1 %40, label %41, label %48

41:                                               ; preds = %35
  %42 = load ptr, ptr %4, align 8, !tbaa !12
  %43 = load i32, ptr %7, align 4, !tbaa !14
  %44 = mul nsw i32 %43, 16
  %45 = load i32, ptr %6, align 4, !tbaa !14
  %46 = sdiv i32 %45, 2
  %47 = add nsw i32 %44, %46
  call void @Vec_IntPush(ptr noundef %42, i32 noundef %47)
  br label %48

48:                                               ; preds = %41, %35
  br label %49

49:                                               ; preds = %48
  %50 = load i32, ptr %6, align 4, !tbaa !14
  %51 = add nsw i32 %50, 2
  store i32 %51, ptr %6, align 4, !tbaa !14
  br label %32, !llvm.loop !39

52:                                               ; preds = %32
  br label %53

53:                                               ; preds = %52
  %54 = load i32, ptr %7, align 4, !tbaa !14
  %55 = add nsw i32 %54, 1
  store i32 %55, ptr %7, align 4, !tbaa !14
  br label %9, !llvm.loop !40

56:                                               ; preds = %9
  call void @llvm.lifetime.end.p0(i64 4, ptr %7) #7
  call void @llvm.lifetime.end.p0(i64 4, ptr %6) #7
  call void @llvm.lifetime.end.p0(i64 4, ptr %5) #7
  ret void
}