; Function Attrs: inlinehint nounwind uwtable
define internal fastcc void @Min_CubeGetLits(ptr noundef readonly captures(none) %0, ptr noundef captures(none) initializes((4, 8)) %1) unnamed_addr #2 {
  %3 = getelementptr inbounds nuw i8, ptr %1, i64 4
  store i32 0, ptr %3, align 4, !tbaa !3
  %4 = getelementptr inbounds nuw i8, ptr %0, i64 8
  %5 = load i32, ptr %4, align 8
  %6 = and i32 %5, 4193280
  %.not17 = icmp eq i32 %6, 0
  br i1 %.not17, label %._crit_edge, label %.lr.ph

.lr.ph:                                           ; preds = %2
  %7 = getelementptr inbounds nuw i8, ptr %0, i64 12
  %.phi.trans.insert.i = getelementptr inbounds nuw i8, ptr %1, i64 8
  br label %8

8:                                                ; preds = %.lr.ph, %51
  %indvars.iv = phi i64 [ 0, %.lr.ph ], [ %indvars.iv.next, %51 ]
  %9 = getelementptr inbounds nuw [1 x i32], ptr %7, i64 0, i64 %indvars.iv
  %10 = load i32, ptr %9, align 4, !tbaa !12
  %11 = lshr i32 %10, 1
  %12 = xor i32 %11, %10
  %indvars.iv.tr = trunc i64 %indvars.iv to i32
  %13 = shl i32 %indvars.iv.tr, 4
  br label %14

14:                                               ; preds = %8, %48
  %.01415 = phi i32 [ 0, %8 ], [ %49, %48 ]
  %15 = shl nuw nsw i32 1, %.01415
  %16 = and i32 %15, %12
  %.not = icmp eq i32 %16, 0
  br i1 %.not, label %48, label %17

17:                                               ; preds = %14
  %18 = lshr exact i32 %.01415, 1
  %19 = add nuw nsw i32 %18, %13
  %20 = load i32, ptr %3, align 4, !tbaa !3
  %21 = load i32, ptr %1, align 8, !tbaa !10
  %22 = icmp eq i32 %20, %21
  br i1 %22, label %23, label %.Vec_IntGrow.exit10_crit_edge.i

.Vec_IntGrow.exit10_crit_edge.i:                  ; preds = %17
  %.pre.i = load ptr, ptr %.phi.trans.insert.i, align 8, !tbaa !11
  br label %Vec_IntPush.exit

23:                                               ; preds = %17
  %24 = icmp slt i32 %20, 16
  br i1 %24, label %25, label %32

25:                                               ; preds = %23
  %26 = load ptr, ptr %.phi.trans.insert.i, align 8, !tbaa !11
  %.not9.i.i = icmp eq ptr %26, null
  br i1 %.not9.i.i, label %29, label %27

27:                                               ; preds = %25
  %28 = tail call dereferenceable_or_null(64) ptr @realloc(ptr noundef nonnull %26, i64 noundef 64) #9
  br label %Vec_IntGrow.exit.i

29:                                               ; preds = %25
  %30 = tail call noalias dereferenceable_or_null(64) ptr @malloc(i64 noundef 64) #8
  br label %Vec_IntGrow.exit.i

Vec_IntGrow.exit.i:                               ; preds = %29, %27
  %31 = phi ptr [ %28, %27 ], [ %30, %29 ]
  store ptr %31, ptr %.phi.trans.insert.i, align 8, !tbaa !11
  store i32 16, ptr %1, align 8, !tbaa !10
  br label %Vec_IntPush.exit

32:                                               ; preds = %23
  %33 = shl nuw nsw i32 %20, 1
  %34 = load ptr, ptr %.phi.trans.insert.i, align 8, !tbaa !11
  %.not9.i9.i = icmp eq ptr %34, null
  %35 = zext nneg i32 %33 to i64
  %36 = shl nuw nsw i64 %35, 2
  br i1 %.not9.i9.i, label %39, label %37

37:                                               ; preds = %32
  %38 = tail call ptr @realloc(ptr noundef nonnull %34, i64 noundef %36) #9
  br label %41

39:                                               ; preds = %32
  %40 = tail call noalias ptr @malloc(i64 noundef %36) #8
  br label %41

41:                                               ; preds = %39, %37
  %42 = phi ptr [ %38, %37 ], [ %40, %39 ]
  store ptr %42, ptr %.phi.trans.insert.i, align 8, !tbaa !11
  store i32 %33, ptr %1, align 8, !tbaa !10
  br label %Vec_IntPush.exit

Vec_IntPush.exit:                                 ; preds = %.Vec_IntGrow.exit10_crit_edge.i, %Vec_IntGrow.exit.i, %41
  %43 = phi ptr [ %.pre.i, %.Vec_IntGrow.exit10_crit_edge.i ], [ %42, %41 ], [ %31, %Vec_IntGrow.exit.i ]
  %44 = load i32, ptr %3, align 4, !tbaa !3
  %45 = add nsw i32 %44, 1
  store i32 %45, ptr %3, align 4, !tbaa !3
  %46 = sext i32 %44 to i64
  %47 = getelementptr inbounds i32, ptr %43, i64 %46
  store i32 %19, ptr %47, align 4, !tbaa !12
  br label %48

48:                                               ; preds = %14, %Vec_IntPush.exit
  %49 = add nuw nsw i32 %.01415, 2
  %50 = icmp samesign ult i32 %.01415, 30
  br i1 %50, label %14, label %51, !llvm.loop !38

51:                                               ; preds = %48
  %indvars.iv.next = add nuw nsw i64 %indvars.iv, 1
  %52 = load i32, ptr %4, align 8
  %53 = lshr i32 %52, 10
  %54 = and i32 %53, 4095
  %55 = zext nneg i32 %54 to i64
  %56 = icmp samesign ult i64 %indvars.iv.next, %55
  br i1 %56, label %8, label %._crit_edge, !llvm.loop !39

._crit_edge:                                      ; preds = %51, %2
  ret void
}